target datalayout = "e-m:e-p270:32:32-p271:32:32-p272:64:64-i64:64-i128:128-f80:128-n8:16:32:64-S128"
target triple = "x86_64-pc-linux-gnu"

%struct.ssl_st = type { i32, i16, i16, ptr, ptr, ptr, ptr, ptr, i32, i32, ptr, ptr, i32, i32, ptr, ptr, ptr, ptr, ptr, ptr, ptr, ptr, i32, i32, [32 x i8], ptr, ptr, ptr, ptr, ptr, ptr, ptr, i64, %struct.crypto_ex_data_st, ptr, i32, i32, i32, i32, i16, ptr, i32, i64, ptr, ptr, ptr, ptr, ptr, ptr, i32, i32, ptr, ptr, i8, i8, i32 }
%struct.crypto_ex_data_st = type { ptr }
%struct.ssl3_state_st = type { [8 x i8], [8 x i8], [32 x i8], [32 x i8], i8, i8, %struct.ssl3_buffer_st, %struct.ssl3_buffer_st, %struct.ssl3_record_st, i8, i32, i32, i32, i32, ptr, ptr, %struct.env_md_ctx_st, %struct.env_md_ctx_st, i8, i32, [2 x i8], i32, i8, i8, ptr, ptr, ptr, %struct.anon, [64 x i8], i8, [64 x i8], i8, i32, i32, ptr, i64, ptr, i64, i8, [64 x i8] }
%struct.ssl3_buffer_st = type { ptr, i16, i16, i16 }
%struct.ssl3_record_st = type { i8, i16, ptr }
%struct.env_md_ctx_st = type { ptr, ptr, ptr, ptr }
%struct.anon = type { [64 x i8], i32, [64 x i8], i32, i64, i32, ptr, i32, i32, %union.anon, %union.anon.0, i8, i32, ptr, ptr, i64, ptr, i8, i8, i8, i8, i32, i8, ptr, i64, i8, ptr, i8, i8, i8, %struct.ssl_ecdh_ctx_st, ptr, i16 }
%union.anon = type { i32 }
%union.anon.0 = type { i16 }
%struct.ssl_ecdh_ctx_st = type { ptr, ptr }

@eccurves_default = internal constant [3 x i16] [i16 29, i16 23, i16 24], align 2

; Function Attrs: nounwind uwtable
define internal void @tls1_get_curvelist(ptr noundef %0, i32 noundef %1, ptr noundef %2, ptr noundef %3) #0 {
  %5 = alloca ptr, align 8
  %6 = alloca i32, align 4
  %7 = alloca ptr, align 8
  %8 = alloca ptr, align 8
  store ptr %0, ptr %5, align 8, !tbaa !69
  store i32 %1, ptr %6, align 4, !tbaa !58
  store ptr %2, ptr %7, align 8, !tbaa !73
  store ptr %3, ptr %8, align 8, !tbaa !66
  %9 = load i32, ptr %6, align 4, !tbaa !58
  %10 = icmp ne i32 %9, 0
  br i1 %10, label %11, label %26

11:                                               ; preds = %4
  %12 = load ptr, ptr %5, align 8, !tbaa !69
  %13 = getelementptr inbounds nuw %struct.ssl_st, ptr %12, i32 0, i32 14
  %14 = load ptr, ptr %13, align 8, !tbaa !75
  %15 = getelementptr inbounds nuw %struct.ssl3_state_st, ptr %14, i32 0, i32 27
  %16 = getelementptr inbounds nuw %struct.anon, ptr %15, i32 0, i32 23
  %17 = load ptr, ptr %16, align 8, !tbaa !76
  %18 = load ptr, ptr %7, align 8, !tbaa !73
  store ptr %17, ptr %18, align 8, !tbaa !57
  %19 = load ptr, ptr %5, align 8, !tbaa !69
  %20 = getelementptr inbounds nuw %struct.ssl_st, ptr %19, i32 0, i32 14
  %21 = load ptr, ptr %20, align 8, !tbaa !75
  %22 = getelementptr inbounds nuw %struct.ssl3_state_st, ptr %21, i32 0, i32 27
  %23 = getelementptr inbounds nuw %struct.anon, ptr %22, i32 0, i32 24
  %24 = load i64, ptr %23, align 8, !tbaa !90
  %25 = load ptr, ptr %8, align 8, !tbaa !66
  store i64 %24, ptr %25, align 8, !tbaa !56
  br label %41

26:                                               ; preds = %4
  %27 = load ptr, ptr %5, align 8, !tbaa !69
  %28 = getelementptr inbounds nuw %struct.ssl_st, ptr %27, i32 0, i32 43
  %29 = load ptr, ptr %28, align 8, !tbaa !91
  %30 = load ptr, ptr %7, align 8, !tbaa !73
  store ptr %29, ptr %30, align 8, !tbaa !57
  %31 = load ptr, ptr %5, align 8, !tbaa !69
  %32 = getelementptr inbounds nuw %struct.ssl_st, ptr %31, i32 0, i32 42
  %33 = load i64, ptr %32, align 8, !tbaa !92
  %34 = load ptr, ptr %8, align 8, !tbaa !66
  store i64 %33, ptr %34, align 8, !tbaa !56
  %35 = load ptr, ptr %7, align 8, !tbaa !73
  %36 = load ptr, ptr %35, align 8, !tbaa !57
  %37 = icmp ne ptr %36, null
  br i1 %37, label %41, label %38

38:                                               ; preds = %26
  %39 = load ptr, ptr %7, align 8, !tbaa !73
  store ptr @eccurves_default, ptr %39, align 8, !tbaa !57
  %40 = load ptr, ptr %8, align 8, !tbaa !66
  store i64 3, ptr %40, align 8, !tbaa !56
  br label %41

41:                                               ; preds = %11, %38, %26
  ret void
}

; Function Attrs: nounwind uwtable
define hidden i32 @tls1_check_curve_id(ptr noundef %0, i16 noundef zeroext %1) #0 {
  %3 = alloca i32, align 4
  %4 = alloca ptr, align 8
  %5 = alloca i16, align 2
  %6 = alloca ptr, align 8
  %7 = alloca i64, align 8
  %8 = alloca i64, align 8
  %9 = alloca i64, align 8
  %10 = alloca i32, align 4
  store ptr %0, ptr %4, align 8, !tbaa !69
  store i16 %1, ptr %5, align 2, !tbaa !62
  call void @llvm.lifetime.start.p0(i64 8, ptr %6) #8
  call void @llvm.lifetime.start.p0(i64 8, ptr %7) #8
  call void @llvm.lifetime.start.p0(i64 8, ptr %8) #8
  call void @llvm.lifetime.start.p0(i64 8, ptr %9) #8
  store i64 0, ptr %9, align 8, !tbaa !56
  br label %11

11:                                               ; preds = %61, %2
  %12 = load i64, ptr %9, align 8, !tbaa !56
  %13 = icmp ule i64 %12, 1
  br i1 %13, label %14, label %64

14:                                               ; preds = %11
  %15 = load i64, ptr %9, align 8, !tbaa !56
  %16 = icmp ne i64 %15, 0
  br i1 %16, label %17, label %26

17:                                               ; preds = %14
  %18 = load ptr, ptr %4, align 8, !tbaa !69
  %19 = getelementptr inbounds nuw %struct.ssl_st, ptr %18, i32 0, i32 54
  %20 = load i8, ptr %19, align 1
  %21 = lshr i8 %20, 1
  %22 = and i8 %21, 1
  %23 = zext i8 %22 to i32
  %24 = icmp ne i32 %23, 0
  br i1 %24, label %26, label %25

25:                                               ; preds = %17
  br label %61

26:                                               ; preds = %17, %14
  %27 = load ptr, ptr %4, align 8, !tbaa !69
  %28 = load i64, ptr %9, align 8, !tbaa !56
  %29 = trunc i64 %28 to i32
  call void @tls1_get_curvelist(ptr noundef %27, i32 noundef %29, ptr noundef %6, ptr noundef %7)
  %30 = load i64, ptr %9, align 8, !tbaa !56
  %31 = icmp ne i64 %30, 0
  br i1 %31, label %32, label %36

32:                                               ; preds = %26
  %33 = load i64, ptr %7, align 8, !tbaa !56
  %34 = icmp eq i64 %33, 0
  br i1 %34, label %35, label %36

35:                                               ; preds = %32
  br label %61

36:                                               ; preds = %32, %26
  store i64 0, ptr %8, align 8, !tbaa !56
  br label %37

37:                                               ; preds = %52, %36
  %38 = load i64, ptr %8, align 8, !tbaa !56
  %39 = load i64, ptr %7, align 8, !tbaa !56
  %40 = icmp ult i64 %38, %39
  br i1 %40, label %41, label %55

41:                                               ; preds = %37
  %42 = load ptr, ptr %6, align 8, !tbaa !57
  %43 = load i64, ptr %8, align 8, !tbaa !56
  %44 = getelementptr inbounds nuw i16, ptr %42, i64 %43
  %45 = load i16, ptr %44, align 2, !tbaa !62
  %46 = zext i16 %45 to i32
  %47 = load i16, ptr %5, align 2, !tbaa !62
  %48 = zext i16 %47 to i32
  %49 = icmp eq i32 %46, %48
  br i1 %49, label %50, label %51

50:                                               ; preds = %41
  br label %55

51:                                               ; preds = %41
  br label %52

52:                                               ; preds = %51
  %53 = load i64, ptr %8, align 8, !tbaa !56
  %54 = add i64 %53, 1
  store i64 %54, ptr %8, align 8, !tbaa !56
  br label %37, !llvm.loop !96

55:                                               ; preds = %50, %37
  %56 = load i64, ptr %8, align 8, !tbaa !56
  %57 = load i64, ptr %7, align 8, !tbaa !56
  %58 = icmp eq i64 %56, %57
  br i1 %58, label %59, label %60

59:                                               ; preds = %55
  store i32 0, ptr %3, align 4
  store i32 1, ptr %10, align 4
  br label %65

60:                                               ; preds = %55
  br label %61

61:                                               ; preds = %60, %35, %25
  %62 = load i64, ptr %9, align 8, !tbaa !56
  %63 = add i64 %62, 1
  store i64 %63, ptr %9, align 8, !tbaa !56
  br label %11, !llvm.loop !97

64:                                               ; preds = %11
  store i32 1, ptr %3, align 4
  store i32 1, ptr %10, align 4
  br label %65

65:                                               ; preds = %64, %59
  call void @llvm.lifetime.end.p0(i64 8, ptr %9) #8
  call void @llvm.lifetime.end.p0(i64 8, ptr %8) #8
  call void @llvm.lifetime.end.p0(i64 8, ptr %7) #8
  call void @llvm.lifetime.end.p0(i64 8, ptr %6) #8
  %66 = load i32, ptr %3, align 4
  ret i32 %66
}