; Function Attrs: nofree norecurse nosync nounwind memory(read, inaccessiblemem: none) uwtable
define hidden range(i32 0, 2) i32 @tls1_check_curve_id(ptr noundef readonly captures(none) %0, i16 noundef zeroext %1) local_unnamed_addr #6 {
  %3 = getelementptr inbounds nuw i8, ptr %0, i64 312
  %4 = getelementptr inbounds nuw i8, ptr %0, i64 304
  %5 = getelementptr inbounds nuw i8, ptr %0, i64 385
  %6 = getelementptr inbounds nuw i8, ptr %0, i64 80
  br label %7

7:                                                ; preds = %._crit_edge, %2
  %.not42 = phi i1 [ true, %2 ], [ false, %._crit_edge ]
  br i1 %.not42, label %tls1_get_curvelist.exit.thread, label %8

8:                                                ; preds = %7
  %9 = load i8, ptr %5, align 1
  %10 = and i8 %9, 2
  %.not = icmp eq i8 %10, 0
  br i1 %.not, label %._crit_edge.thread, label %tls1_get_curvelist.exit

tls1_get_curvelist.exit.thread:                   ; preds = %7
  %11 = load ptr, ptr %3, align 8, !tbaa !74
  %12 = load i64, ptr %4, align 8, !tbaa !75
  %.not11.i = icmp eq ptr %11, null
  %spec.select = select i1 %.not11.i, ptr @eccurves_default, ptr %11
  %spec.select20 = select i1 %.not11.i, i64 3, i64 %12
  %13 = icmp eq i64 %spec.select20, 0
  br i1 %13, label %._crit_edge, label %.lr.ph.preheader

tls1_get_curvelist.exit:                          ; preds = %8
  %14 = load ptr, ptr %6, align 8, !tbaa !58
  %15 = getelementptr inbounds nuw i8, ptr %14, i64 520
  %16 = load ptr, ptr %15, align 8, !tbaa !73
  %17 = getelementptr inbounds nuw i8, ptr %14, i64 528
  %18 = load i64, ptr %17, align 8, !tbaa !59
  %19 = icmp eq i64 %18, 0
  br i1 %19, label %._crit_edge.thread, label %.lr.ph.preheader

.lr.ph.preheader:                                 ; preds = %tls1_get_curvelist.exit, %tls1_get_curvelist.exit.thread
  %.12933 = phi ptr [ %spec.select, %tls1_get_curvelist.exit.thread ], [ %16, %tls1_get_curvelist.exit ]
  %.0173031 = phi i64 [ %spec.select20, %tls1_get_curvelist.exit.thread ], [ %18, %tls1_get_curvelist.exit ]
  br label %.lr.ph

.lr.ph:                                           ; preds = %.lr.ph.preheader, %23
  %.01321 = phi i64 [ %24, %23 ], [ 0, %.lr.ph.preheader ]
  %20 = getelementptr inbounds nuw i16, ptr %.12933, i64 %.01321
  %21 = load i16, ptr %20, align 2, !tbaa !56
  %22 = icmp eq i16 %21, %1
  br i1 %22, label %._crit_edge, label %23

23:                                               ; preds = %.lr.ph
  %24 = add nuw i64 %.01321, 1
  %exitcond.not = icmp eq i64 %24, %.0173031
  br i1 %exitcond.not, label %._crit_edge.thread, label %.lr.ph, !llvm.loop !82

._crit_edge:                                      ; preds = %.lr.ph, %tls1_get_curvelist.exit.thread
  %.0173032 = phi i64 [ 0, %tls1_get_curvelist.exit.thread ], [ %.0173031, %.lr.ph ]
  %.013.lcssa = phi i64 [ 0, %tls1_get_curvelist.exit.thread ], [ %.01321, %.lr.ph ]
  %25 = icmp ne i64 %.013.lcssa, %.0173032
  %brmerge.not = and i1 %25, %.not42
  br i1 %brmerge.not, label %7, label %._crit_edge.thread.loopexit46.split.loop.exit

._crit_edge.thread.loopexit46.split.loop.exit:    ; preds = %._crit_edge
  %.mux.le = zext i1 %25 to i32
  br label %._crit_edge.thread

._crit_edge.thread:                               ; preds = %._crit_edge.thread.loopexit46.split.loop.exit, %tls1_get_curvelist.exit, %8, %23
  %.014 = phi i32 [ 0, %23 ], [ %.mux.le, %._crit_edge.thread.loopexit46.split.loop.exit ], [ 1, %tls1_get_curvelist.exit ], [ 1, %8 ]
  ret i32 %.014
}